target datalayout = "e-m:e-p270:32:32-p271:32:32-p272:64:64-i64:64-i128:128-f80:128-n8:16:32:64-S128"
target triple = "x86_64-pc-linux-gnu"

@stderr = external global ptr, align 8
@.str.60 = private unnamed_addr constant [4 x i8] c"%s\0A\00", align 1

; Function Attrs: mustprogress uwtable
define internal void @_ZL6loggerPviPKc(ptr noundef %0, i32 noundef %1, ptr noundef %2) #5 {
  %4 = alloca ptr, align 8
  %5 = alloca i32, align 4
  %6 = alloca ptr, align 8
  %7 = alloca ptr, align 8
  %8 = alloca i32, align 4
  %9 = alloca i32, align 4
  store ptr %0, ptr %4, align 8, !tbaa !101
  store i32 %1, ptr %5, align 4, !tbaa !20
  store ptr %2, ptr %6, align 8, !tbaa !18
  call void @llvm.lifetime.start.p0(i64 8, ptr %7) #3
  call void @llvm.lifetime.start.p0(i64 4, ptr %8) #3
  %10 = call i32 @proj_log_level(ptr noundef null, i32 noundef 4)
  store i32 %10, ptr %8, align 4, !tbaa !20
  %11 = load ptr, ptr %4, align 8, !tbaa !101
  store ptr %11, ptr %7, align 8, !tbaa !26
  %12 = load i32, ptr %5, align 4, !tbaa !20
  %13 = icmp eq i32 %12, 0
  br i1 %13, label %14, label %18

14:                                               ; preds = %3
  %15 = load ptr, ptr %7, align 8, !tbaa !26
  %16 = load ptr, ptr %6, align 8, !tbaa !18
  %17 = call i32 (ptr, ptr, ...) @fprintf(ptr noundef %15, ptr noundef @.str.60, ptr noundef %16) #3
  store i32 1, ptr %9, align 4
  br label %30

18:                                               ; preds = %3
  %19 = load i32, ptr %5, align 4, !tbaa !20
  %20 = load i32, ptr %8, align 4, !tbaa !20
  %21 = icmp sle i32 %19, %20
  br i1 %21, label %25, label %22

22:                                               ; preds = %18
  %23 = load i32, ptr %5, align 4, !tbaa !20
  %24 = icmp eq i32 %23, 1
  br i1 %24, label %25, label %29

25:                                               ; preds = %22, %18
  %26 = load ptr, ptr @stderr, align 8, !tbaa !26
  %27 = load ptr, ptr %6, align 8, !tbaa !18
  %28 = call i32 (ptr, ptr, ...) @fprintf(ptr noundef %26, ptr noundef @.str.60, ptr noundef %27) #3
  br label %29

29:                                               ; preds = %25, %22
  store i32 0, ptr %9, align 4
  br label %30

30:                                               ; preds = %29, %14
  call void @llvm.lifetime.end.p0(i64 4, ptr %8) #3
  call void @llvm.lifetime.end.p0(i64 8, ptr %7) #3
  %31 = load i32, ptr %9, align 4
  switch i32 %31, label %33 [
    i32 0, label %32
    i32 1, label %32
  ]

32:                                               ; preds = %30, %30
  ret void

33:                                               ; preds = %30
  unreachable
}