; Function Attrs: mustprogress uwtable
define internal void @_ZL6loggerPviPKc(ptr noundef captures(none) %0, i32 noundef %1, ptr noundef %2) #16 {
  %4 = tail call i32 @proj_log_level(ptr noundef null, i32 noundef 4)
  %5 = icmp eq i32 %1, 0
  br i1 %5, label %.sink.split, label %6

6:                                                ; preds = %3
  %7 = icmp sle i32 %1, %4
  %8 = icmp eq i32 %1, 1
  %or.cond = or i1 %8, %7
  br i1 %or.cond, label %9, label %12

9:                                                ; preds = %6
  %10 = load ptr, ptr @stderr, align 8, !tbaa !21
  br label %.sink.split

.sink.split:                                      ; preds = %3, %9
  %.sink = phi ptr [ %10, %9 ], [ %0, %3 ]
  %11 = tail call i32 (ptr, ptr, ...) @fprintf(ptr noundef %.sink, ptr noundef nonnull @.str.60, ptr noundef %2) #30
  br label %12

12:                                               ; preds = %.sink.split, %6
  ret void
}